target datalayout = "e-m:e-p270:32:32-p271:32:32-p272:64:64-i64:64-i128:128-f80:128-n8:16:32:64-S128"
target triple = "x86_64-pc-linux-gnu"

%struct.mbedtls_dhm_context = type { %struct.mbedtls_mpi, %struct.mbedtls_mpi, %struct.mbedtls_mpi, %struct.mbedtls_mpi, %struct.mbedtls_mpi, %struct.mbedtls_mpi, %struct.mbedtls_mpi, %struct.mbedtls_mpi, %struct.mbedtls_mpi, %struct.mbedtls_mpi }
%struct.mbedtls_mpi = type { ptr, i16, i16 }

@.str = private unnamed_addr constant [117 x i8] c"generated/home/dtcxzyw/WorkSpace/Projects/compilers/llvm-opt-benchmark/bench/lief/bench_build/mbed_src/library/dhm.c\00", align 1

; Function Attrs: inlinehint nounwind uwtable
define internal i32 @mbedtls_error_add(i32 noundef %0, i32 noundef %1, ptr noundef %2, i32 noundef %3) #4 {
  %5 = alloca i32, align 4
  %6 = alloca i32, align 4
  %7 = alloca ptr, align 8
  %8 = alloca i32, align 4
  store i32 %0, ptr %5, align 4, !tbaa !8
  store i32 %1, ptr %6, align 4, !tbaa !8
  store ptr %2, ptr %7, align 8, !tbaa !15
  store i32 %3, ptr %8, align 4, !tbaa !8
  %9 = load i32, ptr %5, align 4, !tbaa !8
  %10 = load i32, ptr %6, align 4, !tbaa !8
  %11 = add nsw i32 %9, %10
  ret i32 %11
}

; Function Attrs: alwaysinline nounwind uwtable
define internal zeroext i16 @mbedtls_get_unaligned_uint16(ptr noundef %0) #5 {
  %2 = alloca ptr, align 8
  %3 = alloca i16, align 2
  store ptr %0, ptr %2, align 8, !tbaa !19
  call void @llvm.lifetime.start.p0(i64 2, ptr %3) #10
  %4 = load ptr, ptr %2, align 8, !tbaa !19
  call void @llvm.memcpy.p0.p0.i64(ptr align 2 %3, ptr align 1 %4, i64 2, i1 false)
  %5 = load i16, ptr %3, align 2, !tbaa !28
  call void @llvm.lifetime.end.p0(i64 2, ptr %3) #10
  ret i16 %5
}

; Function Attrs: nounwind uwtable
define internal i32 @dhm_check_range(ptr noundef %0, ptr noundef %1) #0 {
  %3 = alloca ptr, align 8
  %4 = alloca ptr, align 8
  %5 = alloca %struct.mbedtls_mpi, align 8
  %6 = alloca i32, align 4
  store ptr %0, ptr %3, align 8, !tbaa !10
  store ptr %1, ptr %4, align 8, !tbaa !10
  call void @llvm.lifetime.start.p0(i64 16, ptr %5) #10
  call void @llvm.lifetime.start.p0(i64 4, ptr %6) #10
  store i32 0, ptr %6, align 4, !tbaa !8
  call void @mbedtls_mpi_init(ptr noundef %5)
  br label %7

7:                                                ; preds = %2
  %8 = load ptr, ptr %4, align 8, !tbaa !10
  %9 = call i32 @mbedtls_mpi_sub_int(ptr noundef %5, ptr noundef %8, i64 noundef 2)
  store i32 %9, ptr %6, align 4, !tbaa !8
  %10 = icmp ne i32 %9, 0
  br i1 %10, label %11, label %12

11:                                               ; preds = %7
  br label %24

12:                                               ; preds = %7
  br label %13

13:                                               ; preds = %12
  br label %14

14:                                               ; preds = %13
  %15 = load ptr, ptr %3, align 8, !tbaa !10
  %16 = call i32 @mbedtls_mpi_cmp_int(ptr noundef %15, i64 noundef 2)
  %17 = icmp slt i32 %16, 0
  br i1 %17, label %22, label %18

18:                                               ; preds = %14
  %19 = load ptr, ptr %3, align 8, !tbaa !10
  %20 = call i32 @mbedtls_mpi_cmp_mpi(ptr noundef %19, ptr noundef %5)
  %21 = icmp sgt i32 %20, 0
  br i1 %21, label %22, label %23

22:                                               ; preds = %18, %14
  store i32 -12416, ptr %6, align 4, !tbaa !8
  br label %23

23:                                               ; preds = %22, %18
  br label %24

24:                                               ; preds = %23, %11
  call void @mbedtls_mpi_free(ptr noundef %5)
  %25 = load i32, ptr %6, align 4, !tbaa !8
  call void @llvm.lifetime.end.p0(i64 4, ptr %6) #10
  call void @llvm.lifetime.end.p0(i64 16, ptr %5) #10
  ret i32 %25
}

; Function Attrs: nounwind uwtable
define internal i32 @dhm_read_bignum(ptr noundef %0, ptr noundef %1, ptr noundef %2) #0 {
  %4 = alloca i32, align 4
  %5 = alloca ptr, align 8
  %6 = alloca ptr, align 8
  %7 = alloca ptr, align 8
  %8 = alloca i32, align 4
  %9 = alloca i32, align 4
  %10 = alloca i32, align 4
  store ptr %0, ptr %5, align 8, !tbaa !10
  store ptr %1, ptr %6, align 8, !tbaa !12
  store ptr %2, ptr %7, align 8, !tbaa !15
  call void @llvm.lifetime.start.p0(i64 4, ptr %8) #10
  call void @llvm.lifetime.start.p0(i64 4, ptr %9) #10
  %11 = load ptr, ptr %7, align 8, !tbaa !15
  %12 = load ptr, ptr %6, align 8, !tbaa !12
  %13 = load ptr, ptr %12, align 8, !tbaa !15
  %14 = ptrtoint ptr %11 to i64
  %15 = ptrtoint ptr %13 to i64
  %16 = sub i64 %14, %15
  %17 = icmp slt i64 %16, 2
  br i1 %17, label %18, label %19

18:                                               ; preds = %3
  store i32 -12416, ptr %4, align 4
  store i32 1, ptr %10, align 4
  br label %56

19:                                               ; preds = %3
  %20 = load ptr, ptr %6, align 8, !tbaa !12
  %21 = load ptr, ptr %20, align 8, !tbaa !15
  %22 = getelementptr inbounds i8, ptr %21, i64 0
  %23 = call zeroext i16 @mbedtls_get_unaligned_uint16(ptr noundef %22)
  %24 = call i16 @llvm.bswap.i16(i16 %23)
  %25 = zext i16 %24 to i32
  store i32 %25, ptr %9, align 4, !tbaa !8
  %26 = load ptr, ptr %6, align 8, !tbaa !12
  %27 = load ptr, ptr %26, align 8, !tbaa !15
  %28 = getelementptr inbounds i8, ptr %27, i64 2
  store ptr %28, ptr %26, align 8, !tbaa !15
  %29 = load ptr, ptr %7, align 8, !tbaa !15
  %30 = load ptr, ptr %6, align 8, !tbaa !12
  %31 = load ptr, ptr %30, align 8, !tbaa !15
  %32 = ptrtoint ptr %29 to i64
  %33 = ptrtoint ptr %31 to i64
  %34 = sub i64 %32, %33
  %35 = load i32, ptr %9, align 4, !tbaa !8
  %36 = sext i32 %35 to i64
  %37 = icmp ult i64 %34, %36
  br i1 %37, label %38, label %39

38:                                               ; preds = %19
  store i32 -12416, ptr %4, align 4
  store i32 1, ptr %10, align 4
  br label %56

39:                                               ; preds = %19
  %40 = load ptr, ptr %5, align 8, !tbaa !10
  %41 = load ptr, ptr %6, align 8, !tbaa !12
  %42 = load ptr, ptr %41, align 8, !tbaa !15
  %43 = load i32, ptr %9, align 4, !tbaa !8
  %44 = sext i32 %43 to i64
  %45 = call i32 @mbedtls_mpi_read_binary(ptr noundef %40, ptr noundef %42, i64 noundef %44)
  store i32 %45, ptr %8, align 4, !tbaa !8
  %46 = icmp ne i32 %45, 0
  br i1 %46, label %47, label %50

47:                                               ; preds = %39
  %48 = load i32, ptr %8, align 4, !tbaa !8
  %49 = call i32 @mbedtls_error_add(i32 noundef -12544, i32 noundef %48, ptr noundef @.str, i32 noundef 59)
  store i32 %49, ptr %4, align 4
  store i32 1, ptr %10, align 4
  br label %56

50:                                               ; preds = %39
  %51 = load i32, ptr %9, align 4, !tbaa !8
  %52 = load ptr, ptr %6, align 8, !tbaa !12
  %53 = load ptr, ptr %52, align 8, !tbaa !15
  %54 = sext i32 %51 to i64
  %55 = getelementptr inbounds i8, ptr %53, i64 %54
  store ptr %55, ptr %52, align 8, !tbaa !15
  store i32 0, ptr %4, align 4
  store i32 1, ptr %10, align 4
  br label %56

56:                                               ; preds = %50, %47, %38, %18
  call void @llvm.lifetime.end.p0(i64 4, ptr %9) #10
  call void @llvm.lifetime.end.p0(i64 4, ptr %8) #10
  %57 = load i32, ptr %4, align 4
  ret i32 %57
}

; Function Attrs: nounwind uwtable
define hidden i32 @mbedtls_dhm_read_params(ptr noundef %0, ptr noundef %1, ptr noundef %2) #0 {
  %4 = alloca i32, align 4
  %5 = alloca ptr, align 8
  %6 = alloca ptr, align 8
  %7 = alloca ptr, align 8
  %8 = alloca i32, align 4
  %9 = alloca i32, align 4
  store ptr %0, ptr %5, align 8, !tbaa !3
  store ptr %1, ptr %6, align 8, !tbaa !12
  store ptr %2, ptr %7, align 8, !tbaa !15
  call void @llvm.lifetime.start.p0(i64 4, ptr %8) #10
  store i32 -110, ptr %8, align 4, !tbaa !8
  %10 = load ptr, ptr %5, align 8, !tbaa !3
  %11 = getelementptr inbounds nuw %struct.mbedtls_dhm_context, ptr %10, i32 0, i32 0
  %12 = load ptr, ptr %6, align 8, !tbaa !12
  %13 = load ptr, ptr %7, align 8, !tbaa !15
  %14 = call i32 @dhm_read_bignum(ptr noundef %11, ptr noundef %12, ptr noundef %13)
  store i32 %14, ptr %8, align 4, !tbaa !8
  %15 = icmp ne i32 %14, 0
  br i1 %15, label %30, label %16

16:                                               ; preds = %3
  %17 = load ptr, ptr %5, align 8, !tbaa !3
  %18 = getelementptr inbounds nuw %struct.mbedtls_dhm_context, ptr %17, i32 0, i32 1
  %19 = load ptr, ptr %6, align 8, !tbaa !12
  %20 = load ptr, ptr %7, align 8, !tbaa !15
  %21 = call i32 @dhm_read_bignum(ptr noundef %18, ptr noundef %19, ptr noundef %20)
  store i32 %21, ptr %8, align 4, !tbaa !8
  %22 = icmp ne i32 %21, 0
  br i1 %22, label %30, label %23

23:                                               ; preds = %16
  %24 = load ptr, ptr %5, align 8, !tbaa !3
  %25 = getelementptr inbounds nuw %struct.mbedtls_dhm_context, ptr %24, i32 0, i32 4
  %26 = load ptr, ptr %6, align 8, !tbaa !12
  %27 = load ptr, ptr %7, align 8, !tbaa !15
  %28 = call i32 @dhm_read_bignum(ptr noundef %25, ptr noundef %26, ptr noundef %27)
  store i32 %28, ptr %8, align 4, !tbaa !8
  %29 = icmp ne i32 %28, 0
  br i1 %29, label %30, label %32

30:                                               ; preds = %23, %16, %3
  %31 = load i32, ptr %8, align 4, !tbaa !8
  store i32 %31, ptr %4, align 4
  store i32 1, ptr %9, align 4
  br label %42

32:                                               ; preds = %23
  %33 = load ptr, ptr %5, align 8, !tbaa !3
  %34 = getelementptr inbounds nuw %struct.mbedtls_dhm_context, ptr %33, i32 0, i32 4
  %35 = load ptr, ptr %5, align 8, !tbaa !3
  %36 = getelementptr inbounds nuw %struct.mbedtls_dhm_context, ptr %35, i32 0, i32 0
  %37 = call i32 @dhm_check_range(ptr noundef %34, ptr noundef %36)
  store i32 %37, ptr %8, align 4, !tbaa !8
  %38 = icmp ne i32 %37, 0
  br i1 %38, label %39, label %41

39:                                               ; preds = %32
  %40 = load i32, ptr %8, align 4, !tbaa !8
  store i32 %40, ptr %4, align 4
  store i32 1, ptr %9, align 4
  br label %42

41:                                               ; preds = %32
  store i32 0, ptr %4, align 4
  store i32 1, ptr %9, align 4
  br label %42

42:                                               ; preds = %41, %39, %30
  call void @llvm.lifetime.end.p0(i64 4, ptr %8) #10
  %43 = load i32, ptr %4, align 4
  ret i32 %43
}