; Function Attrs: nounwind uwtable
define hidden i32 @mbedtls_dhm_read_params(ptr noundef %0, ptr noundef captures(none) %1, ptr noundef %2) local_unnamed_addr #2 {
  %4 = alloca %struct.mbedtls_mpi, align 8
  %5 = load ptr, ptr %1, align 8, !tbaa !3
  %6 = ptrtoint ptr %2 to i64
  %7 = ptrtoint ptr %5 to i64
  %8 = sub i64 %6, %7
  %9 = icmp slt i64 %8, 2
  br i1 %9, label %dhm_read_bignum.exit.thread, label %10

10:                                               ; preds = %3
  %.0.copyload.i.i = load i16, ptr %5, align 1
  %11 = tail call i16 @llvm.bswap.i16(i16 %.0.copyload.i.i)
  %12 = getelementptr inbounds nuw i8, ptr %5, i64 2
  store ptr %12, ptr %1, align 8, !tbaa !3
  %13 = ptrtoint ptr %12 to i64
  %14 = sub i64 %6, %13
  %15 = zext i16 %11 to i64
  %16 = icmp ult i64 %14, %15
  br i1 %16, label %dhm_read_bignum.exit.thread, label %17

17:                                               ; preds = %10
  %18 = tail call i32 @mbedtls_mpi_read_binary(ptr noundef %0, ptr noundef nonnull %12, i64 noundef %15) #10
  %.not.i = icmp eq i32 %18, 0
  br i1 %.not.i, label %dhm_read_bignum.exit.thread33, label %dhm_read_bignum.exit

dhm_read_bignum.exit.thread33:                    ; preds = %17
  %19 = load ptr, ptr %1, align 8, !tbaa !3
  %20 = getelementptr inbounds nuw i8, ptr %19, i64 %15
  store ptr %20, ptr %1, align 8, !tbaa !3
  br label %22

dhm_read_bignum.exit:                             ; preds = %17
  %21 = add nsw i32 %18, -12544
  %.not = icmp eq i32 %21, 0
  br i1 %.not, label %dhm_read_bignum.exit._crit_edge, label %dhm_read_bignum.exit.thread

dhm_read_bignum.exit._crit_edge:                  ; preds = %dhm_read_bignum.exit
  %.pre = load ptr, ptr %1, align 8, !tbaa !3
  br label %22

22:                                               ; preds = %dhm_read_bignum.exit._crit_edge, %dhm_read_bignum.exit.thread33
  %23 = phi ptr [ %.pre, %dhm_read_bignum.exit._crit_edge ], [ %20, %dhm_read_bignum.exit.thread33 ]
  %24 = getelementptr inbounds nuw i8, ptr %0, i64 16
  %25 = ptrtoint ptr %23 to i64
  %26 = sub i64 %6, %25
  %27 = icmp slt i64 %26, 2
  br i1 %27, label %dhm_read_bignum.exit.thread, label %28

28:                                               ; preds = %22
  %.0.copyload.i.i21 = load i16, ptr %23, align 1
  %29 = tail call i16 @llvm.bswap.i16(i16 %.0.copyload.i.i21)
  %30 = getelementptr inbounds nuw i8, ptr %23, i64 2
  store ptr %30, ptr %1, align 8, !tbaa !3
  %31 = ptrtoint ptr %30 to i64
  %32 = sub i64 %6, %31
  %33 = zext i16 %29 to i64
  %34 = icmp ult i64 %32, %33
  br i1 %34, label %dhm_read_bignum.exit.thread, label %35

35:                                               ; preds = %28
  %36 = tail call i32 @mbedtls_mpi_read_binary(ptr noundef nonnull %24, ptr noundef nonnull %30, i64 noundef %33) #10
  %.not.i22 = icmp eq i32 %36, 0
  br i1 %.not.i22, label %dhm_read_bignum.exit24.thread38, label %dhm_read_bignum.exit24

dhm_read_bignum.exit24.thread38:                  ; preds = %35
  %37 = load ptr, ptr %1, align 8, !tbaa !3
  %38 = getelementptr inbounds nuw i8, ptr %37, i64 %33
  store ptr %38, ptr %1, align 8, !tbaa !3
  br label %40

dhm_read_bignum.exit24:                           ; preds = %35
  %39 = add nsw i32 %36, -12544
  %.not18 = icmp eq i32 %39, 0
  br i1 %.not18, label %dhm_read_bignum.exit24._crit_edge, label %dhm_read_bignum.exit.thread

dhm_read_bignum.exit24._crit_edge:                ; preds = %dhm_read_bignum.exit24
  %.pre46 = load ptr, ptr %1, align 8, !tbaa !3
  br label %40

40:                                               ; preds = %dhm_read_bignum.exit24._crit_edge, %dhm_read_bignum.exit24.thread38
  %41 = phi ptr [ %.pre46, %dhm_read_bignum.exit24._crit_edge ], [ %38, %dhm_read_bignum.exit24.thread38 ]
  %42 = getelementptr inbounds nuw i8, ptr %0, i64 64
  %43 = ptrtoint ptr %41 to i64
  %44 = sub i64 %6, %43
  %45 = icmp slt i64 %44, 2
  br i1 %45, label %dhm_read_bignum.exit.thread, label %46

46:                                               ; preds = %40
  %.0.copyload.i.i25 = load i16, ptr %41, align 1
  %47 = tail call i16 @llvm.bswap.i16(i16 %.0.copyload.i.i25)
  %48 = getelementptr inbounds nuw i8, ptr %41, i64 2
  store ptr %48, ptr %1, align 8, !tbaa !3
  %49 = ptrtoint ptr %48 to i64
  %50 = sub i64 %6, %49
  %51 = zext i16 %47 to i64
  %52 = icmp ult i64 %50, %51
  br i1 %52, label %dhm_read_bignum.exit.thread, label %53

53:                                               ; preds = %46
  %54 = tail call i32 @mbedtls_mpi_read_binary(ptr noundef nonnull %42, ptr noundef nonnull %48, i64 noundef %51) #10
  %.not.i26 = icmp eq i32 %54, 0
  br i1 %.not.i26, label %dhm_read_bignum.exit28.thread43, label %dhm_read_bignum.exit28

dhm_read_bignum.exit28.thread43:                  ; preds = %53
  %55 = load ptr, ptr %1, align 8, !tbaa !3
  %56 = getelementptr inbounds nuw i8, ptr %55, i64 %51
  store ptr %56, ptr %1, align 8, !tbaa !3
  br label %58

dhm_read_bignum.exit28:                           ; preds = %53
  %57 = add nsw i32 %54, -12544
  %.not19 = icmp eq i32 %57, 0
  br i1 %.not19, label %58, label %dhm_read_bignum.exit.thread

58:                                               ; preds = %dhm_read_bignum.exit28.thread43, %dhm_read_bignum.exit28
  call void @llvm.lifetime.start.p0(i64 16, ptr nonnull %4) #10
  call void @mbedtls_mpi_init(ptr noundef nonnull %4) #10
  %59 = call i32 @mbedtls_mpi_sub_int(ptr noundef nonnull %4, ptr noundef nonnull %0, i64 noundef 2) #10
  %.not.i29 = icmp eq i32 %59, 0
  br i1 %.not.i29, label %60, label %dhm_check_range.exit

60:                                               ; preds = %58
  %61 = call i32 @mbedtls_mpi_cmp_int(ptr noundef nonnull %42, i64 noundef 2) #10
  %62 = icmp slt i32 %61, 0
  br i1 %62, label %66, label %63

63:                                               ; preds = %60
  %64 = call i32 @mbedtls_mpi_cmp_mpi(ptr noundef nonnull %42, ptr noundef nonnull %4) #10
  %65 = icmp sgt i32 %64, 0
  br i1 %65, label %66, label %dhm_check_range.exit

66:                                               ; preds = %63, %60
  br label %dhm_check_range.exit

dhm_check_range.exit:                             ; preds = %58, %63, %66
  %.0.i30 = phi i32 [ %59, %58 ], [ -12416, %66 ], [ 0, %63 ]
  call void @mbedtls_mpi_free(ptr noundef nonnull %4) #10
  call void @llvm.lifetime.end.p0(i64 16, ptr nonnull %4) #10
  br label %dhm_read_bignum.exit.thread

dhm_read_bignum.exit.thread:                      ; preds = %46, %40, %28, %22, %10, %3, %dhm_check_range.exit, %dhm_read_bignum.exit, %dhm_read_bignum.exit24, %dhm_read_bignum.exit28
  %.013 = phi i32 [ %21, %dhm_read_bignum.exit ], [ %39, %dhm_read_bignum.exit24 ], [ %57, %dhm_read_bignum.exit28 ], [ %.0.i30, %dhm_check_range.exit ], [ -12416, %3 ], [ -12416, %10 ], [ -12416, %22 ], [ -12416, %28 ], [ -12416, %40 ], [ -12416, %46 ]
  ret i32 %.013
}